; Function Attrs: nounwind uwtable
define void @lv_dropdown_set_dir(ptr noundef %0, i32 noundef %1) local_unnamed_addr #0 {
  %3 = getelementptr inbounds nuw i8, ptr %0, i64 112
  %4 = load i8, ptr %3, align 8
  %5 = and i8 %4, 15
  %6 = zext nneg i8 %5 to i32
  %7 = icmp eq i32 %1, %6
  br i1 %7, label %13, label %8

8:                                                ; preds = %2
  %9 = trunc i32 %1 to i8
  %10 = and i8 %9, 15
  %11 = and i8 %4, -16
  %12 = or disjoint i8 %11, %10
  store i8 %12, ptr %3, align 8
  tail call void @lv_obj_invalidate(ptr noundef nonnull %0) #7
  br label %13

13:                                               ; preds = %2, %8
  ret void
}